target datalayout = "e-m:e-p270:32:32-p271:32:32-p272:64:64-i64:64-i128:128-f80:128-n8:16:32:64-S128"
target triple = "x86_64-pc-linux-gnu"

%"class.folly::test::ThreadTimestamps" = type { %"class.std::vector" }
%"class.std::vector" = type { %"struct.std::_Vector_base" }
%"struct.std::_Vector_base" = type { %"struct.std::_Vector_base<folly::test::DSchedTimestamp, std::allocator<folly::test::DSchedTimestamp>>::_Vector_impl" }
%"struct.std::_Vector_base<folly::test::DSchedTimestamp, std::allocator<folly::test::DSchedTimestamp>>::_Vector_impl" = type { %"struct.std::_Vector_base<folly::test::DSchedTimestamp, std::allocator<folly::test::DSchedTimestamp>>::_Vector_impl_data" }
%"struct.std::_Vector_base<folly::test::DSchedTimestamp, std::allocator<folly::test::DSchedTimestamp>>::_Vector_impl_data" = type { ptr, ptr, ptr }
%"class.folly::test::DSchedTimestamp" = type { i64 }
%"struct.folly::test::DSchedThreadId" = type { i32 }

; Function Attrs: mustprogress nounwind uwtable
define linkonce_odr void @_ZN5folly4test15DSchedTimestampC2Em(ptr noundef nonnull align 8 dereferenceable(8) %0, i64 noundef %1) unnamed_addr #1 comdat align 2 {
  %3 = alloca ptr, align 8
  %4 = alloca i64, align 8
  store ptr %0, ptr %3, align 8, !tbaa !100
  store i64 %1, ptr %4, align 8, !tbaa !83
  %5 = load ptr, ptr %3, align 8
  %6 = getelementptr inbounds nuw %"class.folly::test::DSchedTimestamp", ptr %5, i32 0, i32 0
  %7 = load i64, ptr %4, align 8, !tbaa !83
  store i64 %7, ptr %6, align 8, !tbaa !101
  ret void
}

; Function Attrs: mustprogress uwtable
define linkonce_odr i64 @_ZN5folly4test15DSchedTimestamp7advanceEv(ptr noundef nonnull align 8 dereferenceable(8) %0) #6 comdat align 2 {
  %2 = alloca %"class.folly::test::DSchedTimestamp", align 8
  %3 = alloca ptr, align 8
  store ptr %0, ptr %3, align 8, !tbaa !100
  %4 = load ptr, ptr %3, align 8
  %5 = getelementptr inbounds nuw %"class.folly::test::DSchedTimestamp", ptr %4, i32 0, i32 0
  %6 = load i64, ptr %5, align 8, !tbaa !101
  %7 = add i64 %6, 1
  store i64 %7, ptr %5, align 8, !tbaa !101
  call void @_ZN5folly4test15DSchedTimestampC2Em(ptr noundef nonnull align 8 dereferenceable(8) %2, i64 noundef %7)
  %8 = getelementptr inbounds nuw %"class.folly::test::DSchedTimestamp", ptr %2, i32 0, i32 0
  %9 = load i64, ptr %8, align 8
  ret i64 %9
}

; Function Attrs: mustprogress nounwind uwtable
define linkonce_odr noundef nonnull align 8 dereferenceable(8) ptr @_ZNSt6vectorIN5folly4test15DSchedTimestampESaIS2_EEixEm(ptr noundef nonnull align 8 dereferenceable(24) %0, i64 noundef %1) #1 comdat align 2 {
  %3 = alloca ptr, align 8
  %4 = alloca i64, align 8
  store ptr %0, ptr %3, align 8, !tbaa !94
  store i64 %1, ptr %4, align 8, !tbaa !83
  %5 = load ptr, ptr %3, align 8
  %6 = getelementptr inbounds nuw %"struct.std::_Vector_base", ptr %5, i32 0, i32 0
  %7 = getelementptr inbounds nuw %"struct.std::_Vector_base<folly::test::DSchedTimestamp, std::allocator<folly::test::DSchedTimestamp>>::_Vector_impl_data", ptr %6, i32 0, i32 0
  %8 = load ptr, ptr %7, align 8, !tbaa !99
  %9 = load i64, ptr %4, align 8, !tbaa !83
  %10 = getelementptr inbounds nuw %"class.folly::test::DSchedTimestamp", ptr %8, i64 %9
  ret ptr %10
}

; Function Attrs: mustprogress uwtable
define i64 @_ZN5folly4test16ThreadTimestamps7advanceENS0_14DSchedThreadIdE(ptr noundef nonnull align 8 dereferenceable(24) %0, i32 %1) #6 align 2 {
  %3 = alloca %"class.folly::test::DSchedTimestamp", align 8
  %4 = alloca %"struct.folly::test::DSchedThreadId", align 4
  %5 = alloca ptr, align 8
  %6 = getelementptr inbounds nuw %"struct.folly::test::DSchedThreadId", ptr %4, i32 0, i32 0
  store i32 %1, ptr %6, align 4
  store ptr %0, ptr %5, align 8, !tbaa !91
  %7 = load ptr, ptr %5, align 8
  %8 = getelementptr inbounds nuw %"class.folly::test::ThreadTimestamps", ptr %7, i32 0, i32 0
  %9 = getelementptr inbounds nuw %"struct.folly::test::DSchedThreadId", ptr %4, i32 0, i32 0
  %10 = load i32, ptr %9, align 4, !tbaa !120
  %11 = zext i32 %10 to i64
  %12 = call noundef nonnull align 8 dereferenceable(8) ptr @_ZNSt6vectorIN5folly4test15DSchedTimestampESaIS2_EEixEm(ptr noundef nonnull align 8 dereferenceable(24) %8, i64 noundef %11) #2
  %13 = call i64 @_ZN5folly4test15DSchedTimestamp7advanceEv(ptr noundef nonnull align 8 dereferenceable(8) %12)
  %14 = getelementptr inbounds nuw %"class.folly::test::DSchedTimestamp", ptr %3, i32 0, i32 0
  store i64 %13, ptr %14, align 8
  %15 = getelementptr inbounds nuw %"class.folly::test::DSchedTimestamp", ptr %3, i32 0, i32 0
  %16 = load i64, ptr %15, align 8
  ret i64 %16
}