; Function Attrs: mustprogress nofree norecurse nosync nounwind willreturn memory(readwrite, inaccessiblemem: none) uwtable
define i64 @_ZN5folly4test16ThreadTimestamps7advanceENS0_14DSchedThreadIdE(ptr noundef nonnull readonly align 8 captures(none) dereferenceable(24) %0, i32 %1) local_unnamed_addr #11 align 2 {
  %3 = zext i32 %1 to i64
  %4 = load ptr, ptr %0, align 8, !tbaa !30
  %5 = getelementptr inbounds nuw %"class.folly::test::DSchedTimestamp", ptr %4, i64 %3
  %6 = load i64, ptr %5, align 8, !tbaa !32
  %7 = add i64 %6, 1
  store i64 %7, ptr %5, align 8, !tbaa !32
  ret i64 %7
}